; Function Attrs: inlinehint nounwind uwtable
define hidden noalias ptr @mi_malloc_small(i64 noundef %0) local_unnamed_addr #0 {
  %2 = tail call align 8 ptr @llvm.threadlocal.address.p0(ptr align 8 @_mi_heap_default)
  %3 = load ptr, ptr %2, align 8, !tbaa !3
  %4 = add i64 %0, 7
  %5 = lshr i64 %4, 3
  %6 = getelementptr inbounds nuw i8, ptr %3, i64 232
  %7 = getelementptr inbounds nuw [129 x ptr], ptr %6, i64 0, i64 %5
  %8 = load ptr, ptr %7, align 8, !tbaa !9
  %9 = getelementptr inbounds nuw i8, ptr %8, i64 16
  %10 = load ptr, ptr %9, align 8, !tbaa !11
  %11 = icmp eq ptr %10, null
  br i1 %11, label %12, label %14, !prof !18

12:                                               ; preds = %1
  %13 = tail call noalias ptr @_mi_malloc_generic(ptr noundef nonnull %3, i64 noundef %0, i1 noundef zeroext false, i64 noundef 0) #19
  br label %mi_heap_malloc_small.exit

14:                                               ; preds = %1
  %.val.i.i.i = load i64, ptr %10, align 8, !tbaa !19
  %15 = inttoptr i64 %.val.i.i.i to ptr
  store ptr %15, ptr %9, align 8, !tbaa !11
  %16 = getelementptr inbounds nuw i8, ptr %8, i64 32
  %17 = load i16, ptr %16, align 8, !tbaa !21
  %18 = add i16 %17, 1
  store i16 %18, ptr %16, align 8, !tbaa !21
  br label %mi_heap_malloc_small.exit

mi_heap_malloc_small.exit:                        ; preds = %12, %14
  %.0.i.i.i = phi ptr [ %13, %12 ], [ %10, %14 ]
  ret ptr %.0.i.i.i
}